target datalayout = "e-m:e-p270:32:32-p271:32:32-p272:64:64-i64:64-i128:128-f80:128-n8:16:32:64-S128"
target triple = "x86_64-pc-linux-gnu"

%class.btDefaultSoftBodySolver = type { %class.btSoftBodySolver.base, i8, [3 x i8], %class.btAlignedObjectArray }
%class.btSoftBodySolver.base = type <{ ptr, i32, i32, float }>
%class.btAlignedObjectArray = type <{ [4 x i8], i32, i32, [4 x i8], ptr, i8, [7 x i8] }>
%class.btSoftBodySolver = type <{ ptr, i32, i32, float, [4 x i8] }>

; Function Attrs: inlinehint mustprogress nounwind uwtable
define linkonce_odr dso_local void @_ZN20btAlignedObjectArrayIP10btSoftBodyE4initEv(ptr noundef nonnull align 8 dereferenceable(25) %0) #5 comdat align 2 {
  %2 = alloca ptr, align 8
  store ptr %0, ptr %2, align 8, !tbaa !29
  %3 = load ptr, ptr %2, align 8
  %4 = getelementptr inbounds nuw %class.btAlignedObjectArray, ptr %3, i32 0, i32 5
  store i8 1, ptr %4, align 8, !tbaa !75
  %5 = getelementptr inbounds nuw %class.btAlignedObjectArray, ptr %3, i32 0, i32 4
  store ptr null, ptr %5, align 8, !tbaa !34
  %6 = getelementptr inbounds nuw %class.btAlignedObjectArray, ptr %3, i32 0, i32 1
  store i32 0, ptr %6, align 4, !tbaa !37
  %7 = getelementptr inbounds nuw %class.btAlignedObjectArray, ptr %3, i32 0, i32 2
  store i32 0, ptr %7, align 8, !tbaa !76
  ret void
}

; Function Attrs: mustprogress nounwind uwtable
define linkonce_odr dso_local void @_ZN18btAlignedAllocatorIP10btSoftBodyLj16EEC2Ev(ptr noundef nonnull align 1 dereferenceable(1) %0) unnamed_addr #1 comdat align 2 {
  %2 = alloca ptr, align 8
  store ptr %0, ptr %2, align 8, !tbaa !73
  ret void
}

; Function Attrs: mustprogress nounwind uwtable
define linkonce_odr dso_local void @_ZN16btSoftBodySolverD2Ev(ptr noundef nonnull align 8 dereferenceable(20) %0) unnamed_addr #1 comdat align 2 {
  %2 = alloca ptr, align 8
  store ptr %0, ptr %2, align 8, !tbaa !24
  ret void
}

; Function Attrs: mustprogress uwtable
define linkonce_odr dso_local void @_ZN20btAlignedObjectArrayIP10btSoftBodyEC2Ev(ptr noundef nonnull align 8 dereferenceable(25) %0) unnamed_addr #2 comdat align 2 {
  %2 = alloca ptr, align 8
  store ptr %0, ptr %2, align 8, !tbaa !29
  %3 = load ptr, ptr %2, align 8
  call void @_ZN18btAlignedAllocatorIP10btSoftBodyLj16EEC2Ev(ptr noundef nonnull align 1 dereferenceable(1) %3)
  call void @_ZN20btAlignedObjectArrayIP10btSoftBodyE4initEv(ptr noundef nonnull align 8 dereferenceable(25) %3)
  ret void
}

; Function Attrs: mustprogress nounwind uwtable
define linkonce_odr dso_local void @_ZN16btSoftBodySolverC2Ev(ptr noundef nonnull align 8 dereferenceable(20) %0) unnamed_addr #1 comdat align 2 {
  %2 = alloca ptr, align 8
  store ptr %0, ptr %2, align 8, !tbaa !24
  %3 = load ptr, ptr %2, align 8
  store ptr getelementptr inbounds inrange(-16, 120) ({ [17 x ptr] }, ptr @_ZTV16btSoftBodySolver, i32 0, i32 0, i32 2), ptr %3, align 8, !tbaa !14
  %4 = getelementptr inbounds nuw %class.btSoftBodySolver, ptr %3, i32 0, i32 1
  store i32 10, ptr %4, align 8, !tbaa !26
  %5 = getelementptr inbounds nuw %class.btSoftBodySolver, ptr %3, i32 0, i32 3
  store float 1.000000e+00, ptr %5, align 8, !tbaa !27
  %6 = getelementptr inbounds nuw %class.btSoftBodySolver, ptr %3, i32 0, i32 2
  store i32 0, ptr %6, align 4, !tbaa !28
  %7 = getelementptr inbounds nuw %class.btSoftBodySolver, ptr %3, i32 0, i32 1
  store i32 5, ptr %7, align 8, !tbaa !26
  ret void
}

; Function Attrs: mustprogress uwtable
define dso_local void @_ZN23btDefaultSoftBodySolverC2Ev(ptr noundef nonnull align 8 dereferenceable(56) %0) unnamed_addr #2 align 2 personality ptr @__gxx_personality_v0 {
  %2 = alloca ptr, align 8
  %3 = alloca ptr, align 8
  %4 = alloca i32, align 4
  store ptr %0, ptr %2, align 8, !tbaa !12
  %5 = load ptr, ptr %2, align 8
  call void @_ZN16btSoftBodySolverC2Ev(ptr noundef nonnull align 8 dereferenceable(20) %5)
  store ptr getelementptr inbounds inrange(-16, 128) ({ [18 x ptr] }, ptr @_ZTV23btDefaultSoftBodySolver, i32 0, i32 0, i32 2), ptr %5, align 8, !tbaa !14
  %6 = getelementptr inbounds nuw %class.btDefaultSoftBodySolver, ptr %5, i32 0, i32 3
  invoke void @_ZN20btAlignedObjectArrayIP10btSoftBodyEC2Ev(ptr noundef nonnull align 8 dereferenceable(25) %6)
          to label %7 unwind label %9

7:                                                ; preds = %1
  %8 = getelementptr inbounds nuw %class.btDefaultSoftBodySolver, ptr %5, i32 0, i32 1
  store i8 1, ptr %8, align 4, !tbaa !16
  ret void

9:                                                ; preds = %1
  %10 = landingpad { ptr, i32 }
          cleanup
  %11 = extractvalue { ptr, i32 } %10, 0
  store ptr %11, ptr %3, align 8
  %12 = extractvalue { ptr, i32 } %10, 1
  store i32 %12, ptr %4, align 4
  call void @_ZN16btSoftBodySolverD2Ev(ptr noundef nonnull align 8 dereferenceable(20) %5) #11
  br label %13

13:                                               ; preds = %9
  %14 = load ptr, ptr %3, align 8
  %15 = load i32, ptr %4, align 4
  %16 = insertvalue { ptr, i32 } poison, ptr %14, 0
  %17 = insertvalue { ptr, i32 } %16, i32 %15, 1
  resume { ptr, i32 } %17
}