; Function Attrs: mustprogress nofree norecurse nosync nounwind willreturn memory(argmem: write) uwtable
define dso_local void @_ZN23btDefaultSoftBodySolverC2Ev(ptr noundef nonnull writeonly align 8 captures(none) dereferenceable(56) initializes((0, 21), (28, 36), (40, 49)) %0) unnamed_addr #0 align 2 personality ptr @__gxx_personality_v0 {
  %2 = getelementptr inbounds nuw i8, ptr %0, i64 8
  %3 = getelementptr inbounds nuw i8, ptr %0, i64 16
  store float 1.000000e+00, ptr %3, align 8, !tbaa !4
  %4 = getelementptr inbounds nuw i8, ptr %0, i64 12
  store i32 0, ptr %4, align 4, !tbaa !10
  store i32 5, ptr %2, align 8, !tbaa !11
  store ptr getelementptr inbounds nuw inrange(-16, 128) (i8, ptr @_ZTV23btDefaultSoftBodySolver, i64 16), ptr %0, align 8, !tbaa !12
  %5 = getelementptr inbounds nuw i8, ptr %0, i64 48
  store i8 1, ptr %5, align 8, !tbaa !14
  %6 = getelementptr inbounds nuw i8, ptr %0, i64 40
  store ptr null, ptr %6, align 8, !tbaa !20
  %7 = getelementptr inbounds nuw i8, ptr %0, i64 28
  store i32 0, ptr %7, align 4, !tbaa !21
  %8 = getelementptr inbounds nuw i8, ptr %0, i64 32
  store i32 0, ptr %8, align 8, !tbaa !22
  %9 = getelementptr inbounds nuw i8, ptr %0, i64 20
  store i8 1, ptr %9, align 4, !tbaa !23
  ret void
}